; ModuleID = '23/786.c'
source_filename = "23/786.c"
target datalayout = "e-m:e-p270:32:32-p271:32:32-p272:64:64-i64:64-f80:128-n8:16:32:64-S128"
target triple = "x86_64-pc-linux-gnu"

@.str = private unnamed_addr constant [3 x i8] c"%s\00", align 1
@.str.1 = private unnamed_addr constant [4 x i8] c"%s \00", align 1

; Function Attrs: noinline nounwind uwtable
define dso_local void @main() #0 {
  %1 = alloca [100 x [100 x i8]], align 16
  %2 = alloca i32, align 4
  %3 = alloca i32, align 4
  store i32 0, i32* %2, align 4
  br label %4

4:                                                ; preds = %11, %0
  %5 = load i32, i32* %2, align 4
  %6 = sext i32 %5 to i64
  %7 = getelementptr inbounds [100 x [100 x i8]], [100 x [100 x i8]]* %1, i64 0, i64 %6
  %8 = getelementptr inbounds [100 x i8], [100 x i8]* %7, i64 0, i64 0
  %9 = call i32 (i8*, ...) @__isoc99_scanf(i8* getelementptr inbounds ([3 x i8], [3 x i8]* @.str, i64 0, i64 0), i8* %8)
  %10 = icmp ne i32 %9, -1
  br i1 %10, label %11, label %18

11:                                               ; preds = %4
  %12 = load i32, i32* %2, align 4
  %13 = sext i32 %12 to i64
  %14 = getelementptr inbounds [100 x [100 x i8]], [100 x [100 x i8]]* %1, i64 0, i64 %13
  %15 = getelementptr inbounds [100 x i8], [100 x i8]* %14, i64 0, i64 0
  %16 = load i32, i32* %2, align 4
  %17 = add nsw i32 %16, 1
  store i32 %17, i32* %2, align 4
  br label %4

18:                                               ; preds = %4
  %19 = load i32, i32* %2, align 4
  %20 = sub nsw i32 %19, 1
  store i32 %20, i32* %3, align 4
  %21 = load i32, i32* %3, align 4
  store i32 %21, i32* %2, align 4
  br label %22

22:                                               ; preds = %39, %18
  %23 = load i32, i32* %2, align 4
  %24 = icmp sge i32 %23, 0
  br i1 %24, label %25, label %42

25:                                               ; preds = %22
  %26 = load i32, i32* %2, align 4
  %27 = icmp ne i32 %26, 0
  br i1 %27, label %28, label %34

28:                                               ; preds = %25
  %29 = load i32, i32* %2, align 4
  %30 = sext i32 %29 to i64
  %31 = getelementptr inbounds [100 x [100 x i8]], [100 x [100 x i8]]* %1, i64 0, i64 %30
  %32 = getelementptr inbounds [100 x i8], [100 x i8]* %31, i64 0, i64 0
  %33 = call i32 (i8*, ...) @printf(i8* getelementptr inbounds ([4 x i8], [4 x i8]* @.str.1, i64 0, i64 0), i8* %32)
  br label %38

34:                                               ; preds = %25
  %35 = getelementptr inbounds [100 x [100 x i8]], [100 x [100 x i8]]* %1, i64 0, i64 0
  %36 = getelementptr inbounds [100 x i8], [100 x i8]* %35, i64 0, i64 0
  %37 = call i32 (i8*, ...) @printf(i8* getelementptr inbounds ([3 x i8], [3 x i8]* @.str, i64 0, i64 0), i8* %36)
  br label %38

38:                                               ; preds = %34, %28
  br label %39

39:                                               ; preds = %38
  %40 = load i32, i32* %2, align 4
  %41 = add nsw i32 %40, -1
  store i32 %41, i32* %2, align 4
  br label %22

42:                                               ; preds = %22
  ret void
}

declare dso_local i32 @__isoc99_scanf(i8*, ...) #1

declare dso_local i32 @printf(i8*, ...) #1


!llvm.module.flags = !{!0}
!llvm.ident = !{!1}

!0 = !{i32 1, !"wchar_size", i32 4}
!1 = !{!"clang version 10.0.0-4ubuntu1 "}
